target datalayout = "e-m:e-p270:32:32-p271:32:32-p272:64:64-i64:64-i128:128-f80:128-n8:16:32:64-S128"
target triple = "x86_64-pc-linux-gnu"

%struct.exr_attr_box2i_t = type { %struct.exr_attr_v2i_t, %struct.exr_attr_v2i_t }
%struct.exr_attr_v2i_t = type { i32, i32 }
%struct._priv_exr_part_t = type { i32, i32, %struct.exr_attribute_list, ptr, ptr, ptr, ptr, ptr, ptr, ptr, ptr, ptr, ptr, ptr, ptr, ptr, ptr, %struct.exr_attr_box2i_t, %struct.exr_attr_box2i_t, i32, i32, i32, float, i32, i32, ptr, ptr, ptr, ptr, i64, i16, i16, i32, i64, i64 }
%struct.exr_attribute_list = type { i32, i32, ptr, ptr }
%struct._priv_exr_context_t = type { i8, i8, i8, i8, i8, i8, i8, i8, %struct.exr_attr_string_t, %struct.exr_attr_string_t, ptr, ptr, ptr, ptr, ptr, ptr, ptr, ptr, i32, i32, i32, i32, i32, float, ptr, ptr, ptr, i64, ptr, ptr, i64, i32, i32, i32, i32, %struct._priv_exr_part_t, ptr, ptr, %struct.exr_attribute_list, %union.pthread_mutex_t, i8, i8, [2 x i8], i32 }
%struct.exr_attr_string_t = type { i32, i32, ptr }
%union.pthread_mutex_t = type { %struct.__pthread_mutex_s }
%struct.__pthread_mutex_s = type { i32, i32, i32, i32, i32, i16, i16, %struct.__pthread_internal_list }
%struct.__pthread_internal_list = type { ptr, ptr }
%struct.exr_attribute_t = type { ptr, ptr, i8, i8, [2 x i8], i32, %union.anon }
%union.anon = type { double }
%struct._internal_exr_seq_scratch = type { ptr, i64, i64, i64, ptr, ptr, ptr }

@.str.26 = private unnamed_addr constant [11 x i8] c"chunkCount\00", align 1
@.str.44 = private unnamed_addr constant [62 x i8] c"Duplicate copy of required attribute 'chunkCount' encountered\00", align 1
@.str.45 = private unnamed_addr constant [4 x i8] c"int\00", align 1
@.str.46 = private unnamed_addr constant [42 x i8] c"attribute 'chunkCount': Invalid type '%s'\00", align 1
@.str.47 = private unnamed_addr constant [57 x i8] c"Required attribute 'chunkCount': Invalid size %d (exp 4)\00", align 1
@.str.48 = private unnamed_addr constant [31 x i8] c"Unable to read chunkCount data\00", align 1
@.str.49 = private unnamed_addr constant [48 x i8] c"Unable to initialize attribute '%s', type 'int'\00", align 1

; Function Attrs: inlinehint nounwind uwtable
define internal i32 @__uint32_identity(i32 noundef %0) #4 {
  %2 = alloca i32, align 4
  store i32 %0, ptr %2, align 4, !tbaa !10
  %3 = load i32, ptr %2, align 4, !tbaa !10
  ret i32 %3
}

; Function Attrs: inlinehint nounwind uwtable
define internal i32 @one_to_native32(i32 noundef %0) #4 {
  %2 = alloca i32, align 4
  store i32 %0, ptr %2, align 4, !tbaa !10
  %3 = load i32, ptr %2, align 4, !tbaa !10
  %4 = call i32 @__uint32_identity(i32 noundef %3)
  ret i32 %4
}

; Function Attrs: nounwind uwtable
define internal i32 @check_populate_chunk_count(ptr noundef %0, ptr noundef %1, ptr noundef %2, ptr noundef %3, i32 noundef %4) #0 {
  %6 = alloca i32, align 4
  %7 = alloca ptr, align 8
  %8 = alloca ptr, align 8
  %9 = alloca ptr, align 8
  %10 = alloca ptr, align 8
  %11 = alloca i32, align 4
  %12 = alloca i32, align 4
  %13 = alloca i32, align 4
  store ptr %0, ptr %7, align 8, !tbaa !3
  store ptr %1, ptr %8, align 8, !tbaa !8
  store ptr %2, ptr %9, align 8, !tbaa !95
  store ptr %3, ptr %10, align 8, !tbaa !93
  store i32 %4, ptr %11, align 4, !tbaa !10
  call void @llvm.lifetime.start.p0(i64 4, ptr %12) #7
  %14 = load ptr, ptr %8, align 8, !tbaa !8
  %15 = getelementptr inbounds nuw %struct._priv_exr_part_t, ptr %14, i32 0, i32 15
  %16 = load ptr, ptr %15, align 8, !tbaa !126
  %17 = icmp ne ptr %16, null
  br i1 %17, label %18, label %30

18:                                               ; preds = %5
  %19 = load ptr, ptr %9, align 8, !tbaa !95
  %20 = getelementptr inbounds nuw %struct._internal_exr_seq_scratch, ptr %19, i32 0, i32 5
  %21 = load ptr, ptr %20, align 8, !tbaa !100
  %22 = load ptr, ptr %9, align 8, !tbaa !95
  %23 = load i32, ptr %11, align 4, !tbaa !10
  %24 = call i32 %21(ptr noundef %22, i32 noundef %23)
  %25 = load ptr, ptr %7, align 8, !tbaa !3
  %26 = getelementptr inbounds nuw %struct._priv_exr_context_t, ptr %25, i32 0, i32 14
  %27 = load ptr, ptr %26, align 8, !tbaa !48
  %28 = load ptr, ptr %7, align 8, !tbaa !3
  %29 = call i32 (ptr, i32, ptr, ...) %27(ptr noundef %28, i32 noundef 14, ptr noundef @.str.44)
  store i32 %29, ptr %6, align 4
  store i32 1, ptr %13, align 4
  br label %107

30:                                               ; preds = %5
  %31 = load ptr, ptr %10, align 8, !tbaa !93
  %32 = call i32 @strcmp(ptr noundef %31, ptr noundef @.str.45) #8
  %33 = icmp ne i32 0, %32
  br i1 %33, label %34, label %47

34:                                               ; preds = %30
  %35 = load ptr, ptr %9, align 8, !tbaa !95
  %36 = getelementptr inbounds nuw %struct._internal_exr_seq_scratch, ptr %35, i32 0, i32 5
  %37 = load ptr, ptr %36, align 8, !tbaa !100
  %38 = load ptr, ptr %9, align 8, !tbaa !95
  %39 = load i32, ptr %11, align 4, !tbaa !10
  %40 = call i32 %37(ptr noundef %38, i32 noundef %39)
  %41 = load ptr, ptr %7, align 8, !tbaa !3
  %42 = getelementptr inbounds nuw %struct._priv_exr_context_t, ptr %41, i32 0, i32 14
  %43 = load ptr, ptr %42, align 8, !tbaa !48
  %44 = load ptr, ptr %7, align 8, !tbaa !3
  %45 = load ptr, ptr %10, align 8, !tbaa !93
  %46 = call i32 (ptr, i32, ptr, ...) %43(ptr noundef %44, i32 noundef 16, ptr noundef @.str.46, ptr noundef %45)
  store i32 %46, ptr %6, align 4
  store i32 1, ptr %13, align 4
  br label %107

47:                                               ; preds = %30
  %48 = load i32, ptr %11, align 4, !tbaa !10
  %49 = sext i32 %48 to i64
  %50 = icmp ne i64 %49, 4
  br i1 %50, label %51, label %64

51:                                               ; preds = %47
  %52 = load ptr, ptr %9, align 8, !tbaa !95
  %53 = getelementptr inbounds nuw %struct._internal_exr_seq_scratch, ptr %52, i32 0, i32 5
  %54 = load ptr, ptr %53, align 8, !tbaa !100
  %55 = load ptr, ptr %9, align 8, !tbaa !95
  %56 = load i32, ptr %11, align 4, !tbaa !10
  %57 = call i32 %54(ptr noundef %55, i32 noundef %56)
  %58 = load ptr, ptr %7, align 8, !tbaa !3
  %59 = getelementptr inbounds nuw %struct._priv_exr_context_t, ptr %58, i32 0, i32 14
  %60 = load ptr, ptr %59, align 8, !tbaa !48
  %61 = load ptr, ptr %7, align 8, !tbaa !3
  %62 = load i32, ptr %11, align 4, !tbaa !10
  %63 = call i32 (ptr, i32, ptr, ...) %60(ptr noundef %61, i32 noundef 14, ptr noundef @.str.47, i32 noundef %62)
  store i32 %63, ptr %6, align 4
  store i32 1, ptr %13, align 4
  br label %107

64:                                               ; preds = %47
  %65 = load ptr, ptr %9, align 8, !tbaa !95
  %66 = getelementptr inbounds nuw %struct._internal_exr_seq_scratch, ptr %65, i32 0, i32 4
  %67 = load ptr, ptr %66, align 8, !tbaa !88
  %68 = load ptr, ptr %9, align 8, !tbaa !95
  %69 = call i32 %67(ptr noundef %68, ptr noundef %11, i64 noundef 4)
  store i32 %69, ptr %12, align 4, !tbaa !10
  %70 = load i32, ptr %12, align 4, !tbaa !10
  %71 = icmp ne i32 %70, 0
  br i1 %71, label %72, label %79

72:                                               ; preds = %64
  %73 = load ptr, ptr %7, align 8, !tbaa !3
  %74 = getelementptr inbounds nuw %struct._priv_exr_context_t, ptr %73, i32 0, i32 13
  %75 = load ptr, ptr %74, align 8, !tbaa !78
  %76 = load ptr, ptr %7, align 8, !tbaa !3
  %77 = load i32, ptr %12, align 4, !tbaa !10
  %78 = call i32 %75(ptr noundef %76, i32 noundef %77, ptr noundef @.str.48)
  store i32 %78, ptr %6, align 4
  store i32 1, ptr %13, align 4
  br label %107

79:                                               ; preds = %64
  %80 = load ptr, ptr %7, align 8, !tbaa !3
  %81 = load ptr, ptr %8, align 8, !tbaa !8
  %82 = getelementptr inbounds nuw %struct._priv_exr_part_t, ptr %81, i32 0, i32 2
  %83 = load ptr, ptr %8, align 8, !tbaa !8
  %84 = getelementptr inbounds nuw %struct._priv_exr_part_t, ptr %83, i32 0, i32 15
  %85 = call i32 @exr_attr_list_add_static_name(ptr noundef %80, ptr noundef %82, ptr noundef @.str.26, i32 noundef 10, i32 noundef 0, ptr noundef null, ptr noundef %84)
  store i32 %85, ptr %12, align 4, !tbaa !10
  %86 = load i32, ptr %12, align 4, !tbaa !10
  %87 = icmp ne i32 %86, 0
  br i1 %87, label %88, label %95

88:                                               ; preds = %79
  %89 = load ptr, ptr %7, align 8, !tbaa !3
  %90 = getelementptr inbounds nuw %struct._priv_exr_context_t, ptr %89, i32 0, i32 14
  %91 = load ptr, ptr %90, align 8, !tbaa !48
  %92 = load ptr, ptr %7, align 8, !tbaa !3
  %93 = load i32, ptr %12, align 4, !tbaa !10
  %94 = call i32 (ptr, i32, ptr, ...) %91(ptr noundef %92, i32 noundef %93, ptr noundef @.str.49, ptr noundef @.str.26)
  store i32 %94, ptr %6, align 4
  store i32 1, ptr %13, align 4
  br label %107

95:                                               ; preds = %79
  %96 = load i32, ptr %11, align 4, !tbaa !10
  %97 = call i32 @one_to_native32(i32 noundef %96)
  store i32 %97, ptr %11, align 4, !tbaa !10
  %98 = load i32, ptr %11, align 4, !tbaa !10
  %99 = load ptr, ptr %8, align 8, !tbaa !8
  %100 = getelementptr inbounds nuw %struct._priv_exr_part_t, ptr %99, i32 0, i32 15
  %101 = load ptr, ptr %100, align 8, !tbaa !126
  %102 = getelementptr inbounds nuw %struct.exr_attribute_t, ptr %101, i32 0, i32 6
  store i32 %98, ptr %102, align 8, !tbaa !33
  %103 = load i32, ptr %11, align 4, !tbaa !10
  %104 = load ptr, ptr %8, align 8, !tbaa !8
  %105 = getelementptr inbounds nuw %struct._priv_exr_part_t, ptr %104, i32 0, i32 32
  store i32 %103, ptr %105, align 4, !tbaa !58
  %106 = load i32, ptr %12, align 4, !tbaa !10
  store i32 %106, ptr %6, align 4
  store i32 1, ptr %13, align 4
  br label %107

107:                                              ; preds = %95, %88, %72, %51, %34, %18
  call void @llvm.lifetime.end.p0(i64 4, ptr %12) #7
  %108 = load i32, ptr %6, align 4
  ret i32 %108
}