; Function Attrs: nounwind uwtable
define internal fastcc i32 @check_populate_chunk_count(ptr noundef %0, ptr noundef %1, ptr noundef nonnull %2, ptr noundef nonnull %3, i32 noundef %4) unnamed_addr #0 {
  %6 = alloca i32, align 4
  store i32 %4, ptr %6, align 4, !tbaa !28
  %7 = getelementptr inbounds nuw i8, ptr %1, i64 128
  %8 = load ptr, ptr %7, align 8, !tbaa !125
  %.not = icmp eq ptr %8, null
  br i1 %.not, label %16, label %9

9:                                                ; preds = %5
  %10 = getelementptr inbounds nuw i8, ptr %2, i64 40
  %11 = load ptr, ptr %10, align 8, !tbaa !74
  %12 = tail call i32 %11(ptr noundef nonnull %2, i32 noundef %4) #9
  %13 = getelementptr inbounds nuw i8, ptr %0, i64 72
  %14 = load ptr, ptr %13, align 8, !tbaa !40
  %15 = tail call i32 (ptr, i32, ptr, ...) %14(ptr noundef %0, i32 noundef 14, ptr noundef nonnull @.str.44) #9
  br label %53

16:                                               ; preds = %5
  %17 = tail call i32 @strcmp(ptr noundef nonnull dereferenceable(1) %3, ptr noundef nonnull dereferenceable(4) @.str.45) #10
  %.not33 = icmp eq i32 %17, 0
  br i1 %.not33, label %25, label %18

18:                                               ; preds = %16
  %19 = getelementptr inbounds nuw i8, ptr %2, i64 40
  %20 = load ptr, ptr %19, align 8, !tbaa !74
  %21 = tail call i32 %20(ptr noundef nonnull %2, i32 noundef %4) #9
  %22 = getelementptr inbounds nuw i8, ptr %0, i64 72
  %23 = load ptr, ptr %22, align 8, !tbaa !40
  %24 = tail call i32 (ptr, i32, ptr, ...) %23(ptr noundef %0, i32 noundef 16, ptr noundef nonnull @.str.46, ptr noundef nonnull %3) #9
  br label %53

25:                                               ; preds = %16
  %.not34 = icmp eq i32 %4, 4
  br i1 %.not34, label %33, label %26

26:                                               ; preds = %25
  %27 = getelementptr inbounds nuw i8, ptr %2, i64 40
  %28 = load ptr, ptr %27, align 8, !tbaa !74
  %29 = tail call i32 %28(ptr noundef nonnull %2, i32 noundef %4) #9
  %30 = getelementptr inbounds nuw i8, ptr %0, i64 72
  %31 = load ptr, ptr %30, align 8, !tbaa !40
  %32 = tail call i32 (ptr, i32, ptr, ...) %31(ptr noundef %0, i32 noundef 14, ptr noundef nonnull @.str.47, i32 noundef %4) #9
  br label %53

33:                                               ; preds = %25
  %34 = getelementptr inbounds nuw i8, ptr %2, i64 32
  %35 = load ptr, ptr %34, align 8, !tbaa !73
  %36 = call i32 %35(ptr noundef nonnull %2, ptr noundef nonnull %6, i64 noundef 4) #9
  %.not35 = icmp eq i32 %36, 0
  br i1 %.not35, label %41, label %37

37:                                               ; preds = %33
  %38 = getelementptr inbounds nuw i8, ptr %0, i64 64
  %39 = load ptr, ptr %38, align 8, !tbaa !66
  %40 = call i32 %39(ptr noundef %0, i32 noundef %36, ptr noundef nonnull @.str.48) #9
  br label %53

41:                                               ; preds = %33
  %42 = getelementptr inbounds nuw i8, ptr %1, i64 8
  %43 = call i32 @exr_attr_list_add_static_name(ptr noundef %0, ptr noundef nonnull %42, ptr noundef nonnull @.str.26, i32 noundef 10, i32 noundef 0, ptr noundef null, ptr noundef nonnull %7) #9
  %.not36 = icmp eq i32 %43, 0
  br i1 %.not36, label %48, label %44

44:                                               ; preds = %41
  %45 = getelementptr inbounds nuw i8, ptr %0, i64 72
  %46 = load ptr, ptr %45, align 8, !tbaa !40
  %47 = call i32 (ptr, i32, ptr, ...) %46(ptr noundef %0, i32 noundef %43, ptr noundef nonnull @.str.49, ptr noundef nonnull @.str.26) #9
  br label %53

48:                                               ; preds = %41
  %49 = load i32, ptr %6, align 4, !tbaa !28
  %50 = load ptr, ptr %7, align 8, !tbaa !125
  %51 = getelementptr inbounds nuw i8, ptr %50, i64 24
  store i32 %49, ptr %51, align 8, !tbaa !29
  %52 = getelementptr inbounds nuw i8, ptr %1, i64 244
  store i32 %49, ptr %52, align 4, !tbaa !47
  br label %53

53:                                               ; preds = %48, %44, %37, %26, %18, %9
  %.0 = phi i32 [ %15, %9 ], [ %24, %18 ], [ %32, %26 ], [ %40, %37 ], [ %47, %44 ], [ 0, %48 ]
  ret i32 %.0
}